(lp0
(dp1
I0
I1
sI1
F0.0
sI2
F0.0
sI3
F0.0
sI4
F0.0
sI5
F0.0
sI6
F0.0
sI7
F0.0
sI8
F0.0
sI9
F0.0
sI10
F0.0
sI11
F-6.284719287967472
sI12
F-0.26231071472844464
sI13
F0.7715923363064775
sI14
F0.25770877236478773
sI15
F1.2363885150358267
sI16
F1.141281706186917
sI17
F0.0
sI18
F0.0
sI19
F0.0
sI20
F0.0
sI21
F6.165068786512392
sI22
F-0.09203884727313846
sI23
F-0.05062136600022616
sI24
F-6.283185307179586
sI25
F-0.9894176081862386
sI26
F-1.0016894544893238
sI27
F-0.047553404424454875
sI28
F-0.009203884727313847
sI29
F0.0
sI30
F0.0
sI31
F0.5476311412751739
sI32
F0.3190680038802134
sI33
F0.3988350048502667
sI34
F0.8237476830945893
sI35
F3.5128160042581182
sI36
F-2.9314372856494604
sI37
F0.0
sI38
F0.0
sI39
F0.0
sI40
F0.0
sI41
F-0.4954757944870621
sI42
F-3.6155927170464564
sI43
F0.0
sI44
F0.0
sI45
F0.0
sI46
F0.0
sI47
F0.0
sI48
F0.0
sI49
F0.0
sI50
F0.0
sI51
F0.07976700097005335
sI52
F-0.8651651643675016
sI53
F0.030679615757712823
sI54
F0.0
sI55
F0.0
sI56
F0.0
sI57
F0.0
sI58
F0.0
sI59
F0.0
sI60
F0.0
sI61
F-1.4296700943094176
sI62
F-2.448233337465483
sI63
F0.0
sI64
F0.0
sI65
F0.0
sI66
F0.0
sI67
F0.0
sI68
F0.0
sI69
F0.0
sI70
F0.0
sI71
F0.0
sI72
F0.0
sI73
F0.0
sI74
F0.0
sI75
F0.0
sI76
F0.0
sI77
F0.0
sI78
F0.0
sI79
F0.0
sI80
F0.0
sI81
F0.0
sI82
F0.0
sI83
F0.0
sI84
F0.0
sI85
F0.0
sI86
F0.0
sI87
F0.0
sI88
F0.0
sI89
F0.0
sI90
F0.0
sI91
F0.0
sI92
F0.0
sI93
F0.0
sI94
F0.0
sI95
F0.0
sI96
F0.0
sI97
F0.0
sI98
F0.0
sI99
F0.0
sI100
F0.0
sI101
F0.0
sI102
F0.0
sI103
F0.0
sI104
F0.0
sI105
F0.0
sI106
F0.0
sI107
F0.0
sI108
F0.0
sI109
F0.0
sI110
F0.0
sI111
F0.0
sI112
F0.0
sI113
F0.0
sI114
F0.0
sI115
F0.0
sI116
F0.0
sI117
F0.0
sI118
F0.0
sI119
F0.0
sI120
F0.0
sI121
F0.0
sI122
F0.0
sI123
F0.0
sI124
F0.0
sI125
F0.0
sI126
F0.0
sI127
F0.0
sI128
F0.0
sI129
F0.0
sI130
F0.0
sI131
F0.0
sI132
F0.0
sI133
F0.0
sI134
F0.0
sI135
F0.0
sI136
F0.0
sI137
F0.0
sI138
F0.0
sI139
F0.0
sI140
F0.0
sI141
F0.0
sI142
F0.0
sI143
F0.0
sI144
F0.0
sI145
F0.0
sI146
F0.0
sI147
F0.0
sI148
F0.0
sI149
F0.0
sI150
F0.0
sI151
F0.0
sI152
F0.0
sI153
F0.0
sI154
F0.0
sI155
F0.0
sI156
F0.0
sI157
F0.0
sI158
F0.0
sI159
F0.0
sI160
F0.0
sI161
F0.0
sI162
F0.0
sI163
F0.0
sI164
F0.0
sI165
F0.0
sI166
F0.0
sI167
F0.0
sI168
F0.0
sI169
F0.0
sI170
F0.0
sI171
F0.0
sI172
F0.0
sI173
F0.0
sI174
F0.0
sI175
F0.0
sI176
F0.0
sI177
F0.0
sI178
F0.0
sI179
F0.0
sI180
F0.0
sI181
F0.0
sI182
F0.0
sI183
F0.0
sI184
F0.0
sI185
F0.0
sI186
F0.0
sI187
F0.0
sI188
F0.0
sI189
F0.0
sI190
F0.0
sI191
F0.0
sI192
F0.0
sI193
F0.0
sI194
F0.0
sI195
F0.0
sI196
F0.0
sI197
F0.0
sI198
F0.0
sI199
F0.0
sI200
F0.0
sI201
F0.0
sI202
F0.0
sI203
F0.0
sI204
F0.0
sI205
F0.0
sI206
F0.0
sI207
F0.0
sI208
F0.0
sI209
F0.0
sI210
F0.0
sI211
F0.0
sI212
F0.0
sI213
F0.0
sI214
F0.0
sI215
F0.0
sI216
F0.0
sI217
F0.0
sI218
F0.0
sI219
F0.0
sI220
F0.0
sI221
F0.0
sI222
F0.0
sI223
F0.0
sI224
F0.0
sI225
F0.0
sI226
F0.0
sI227
F0.0
sI228
F0.0
sI229
F0.0
sI230
F0.0
sI231
F0.0
sI232
F0.0
sI233
F0.0
sI234
F0.0
sI235
F0.0
sI236
F0.0
sI237
F0.0
sI238
F0.0
sI239
F0.0
sI240
F0.0
sI241
F0.0
sI242
F0.0
sI243
F0.0
sI244
F0.0
sI245
F0.0
sI246
F0.0
sI247
F0.0
sI248
F0.0
sI249
F0.0
sI250
F0.0
sI251
F0.0
sI252
F0.0
sa(dp2
I0
F1.0
sI1
F0.0
sI2
F0.0
sI3
F0.0
sI4
F0.0
sI5
F0.0
sI6
F0.0
sI7
F0.0
sI8
F0.0
sI9
F0.0
sI10
F0.0
sI11
F-6.284719287967472
sI12
F-0.26231071472844464
sI13
F0.7715923363064775
sI14
F0.25770877236478773
sI15
F1.2348545342479411
sI16
F1.141281706186917
sI17
F0.0
sI18
F0.0
sI19
F0.0
sI20
F0.0
sI21
F6.165068786512392
sI22
F-0.09203884727313846
sI23
F-0.05062136600022616
sI24
F-6.284719287967472
sI25
F-0.9894176081862386
sI26
F-1.0016894544893238
sI27
F-0.04601942363656923
sI28
F-0.009203884727313847
sI29
F0.0
sI30
F0.0
sI31
F1.5938060386131812
sI32
F0.3236699462438703
sI33
F0.3988350048502667
sI34
F0.8206797215188181
sI35
F3.5112820234702324
sI36
F-2.9314372856494604
sI37
F0.0
sI38
F0.0
sI39
F0.0
sI40
F0.0
sI41
F-0.7838641826095626
sI42
F-3.6155927170464564
sI43
F0.0
sI44
F0.0
sI45
F0.0
sI46
F0.0
sI47
F0.0
sI48
F0.0
sI49
F0.0
sI50
F0.0
sI51
F0.07669903939428206
sI52
F-0.8620972027917303
sI53
F0.023009711818284616
sI54
F0.0
sI55
F0.0
sI56
F0.0
sI57
F0.0
sI58
F0.0
sI59
F0.0
sI60
F0.0
sI61
F-1.428136113521532
sI62
F-2.448233337465483
sI63
F0.0
sI64
F0.0
sI65
F0.0
sI66
F0.0
sI67
F0.0
sI68
F0.0
sI69
F0.0
sI70
F0.0
sI71
F0.0
sI72
F0.0
sI73
F0.0
sI74
F0.0
sI75
F0.0
sI76
F0.0
sI77
F0.0
sI78
F0.0
sI79
F0.0
sI80
F0.0
sI81
F0.0
sI82
F0.0
sI83
F0.0
sI84
F0.0
sI85
F0.0
sI86
F0.0
sI87
F0.0
sI88
F0.0
sI89
F0.0
sI90
F0.0
sI91
F0.0
sI92
F0.0
sI93
F0.0
sI94
F0.0
sI95
F0.0
sI96
F0.0
sI97
F0.0
sI98
F0.0
sI99
F0.0
sI100
F0.0
sI101
F0.0
sI102
F0.0
sI103
F0.0
sI104
F0.0
sI105
F0.0
sI106
F0.0
sI107
F0.0
sI108
F0.0
sI109
F0.0
sI110
F0.0
sI111
F0.0
sI112
F0.0
sI113
F0.0
sI114
F0.0
sI115
F0.0
sI116
F0.0
sI117
F0.0
sI118
F0.0
sI119
F0.0
sI120
F0.0
sI121
F0.0
sI122
F0.0
sI123
F0.0
sI124
F0.0
sI125
F0.0
sI126
F0.0
sI127
F0.0
sI128
F0.0
sI129
F0.0
sI130
F0.0
sI131
F0.0
sI132
F0.0
sI133
F0.0
sI134
F0.0
sI135
F0.0
sI136
F0.0
sI137
F0.0
sI138
F0.0
sI139
F0.0
sI140
F0.0
sI141
F0.0
sI142
F0.0
sI143
F0.0
sI144
F0.0
sI145
F0.0
sI146
F0.0
sI147
F0.0
sI148
F0.0
sI149
F0.0
sI150
F0.0
sI151
F0.0
sI152
F0.0
sI153
F0.0
sI154
F0.0
sI155
F0.0
sI156
F0.0
sI157
F0.0
sI158
F0.0
sI159
F0.0
sI160
F0.0
sI161
F0.0
sI162
F0.0
sI163
F0.0
sI164
F0.0
sI165
F0.0
sI166
F0.0
sI167
F0.0
sI168
F0.0
sI169
F0.0
sI170
F0.0
sI171
F0.0
sI172
F0.0
sI173
F0.0
sI174
F0.0
sI175
F0.0
sI176
F0.0
sI177
F0.0
sI178
F0.0
sI179
F0.0
sI180
F0.0
sI181
F0.0
sI182
F0.0
sI183
F0.0
sI184
F0.0
sI185
F0.0
sI186
F0.0
sI187
F0.0
sI188
F0.0
sI189
F0.0
sI190
F0.0
sI191
F0.0
sI192
F0.0
sI193
F0.0
sI194
F0.0
sI195
F0.0
sI196
F0.0
sI197
F0.0
sI198
F0.0
sI199
F0.0
sI200
F0.0
sI201
F0.0
sI202
F0.0
sI203
F0.0
sI204
F0.0
sI205
F0.0
sI206
F0.0
sI207
F0.0
sI208
F0.0
sI209
F0.0
sI210
F0.0
sI211
F0.0
sI212
F0.0
sI213
F0.0
sI214
F0.0
sI215
F0.0
sI216
F0.0
sI217
F0.0
sI218
F0.0
sI219
F0.0
sI220
F0.0
sI221
F0.0
sI222
F0.0
sI223
F0.0
sI224
F0.0
sI225
F0.0
sI226
F0.0
sI227
F0.0
sI228
F0.0
sI229
F0.0
sI230
F0.0
sI231
F0.0
sI232
F0.0
sI233
F0.0
sI234
F0.0
sI235
F0.0
sI236
F0.0
sI237
F0.0
sI238
F0.0
sI239
F0.0
sI240
F0.0
sI241
F0.0
sI242
F0.0
sI243
F0.0
sI244
F0.0
sI245
F0.0
sI246
F0.0
sI247
F0.0
sI248
F0.0
sI249
F0.0
sI250
F0.0
sI251
F0.0
sI252
F0.0
sa(dp3
I0
F1.0
sI1
F0.0
sI2
F0.0
sI3
F0.0
sI4
F0.0
sI5
F0.0
sI6
F0.0
sI7
F0.0
sI8
F0.0
sI9
F0.0
sI10
F0.0
sI11
F-6.284719287967472
sI12
F-0.26231071472844464
sI13
F0.7700583555185919
sI14
F0.25770877236478773
sI15
F1.2348545342479411
sI16
F1.141281706186917
sI17
F0.0
sI18
F0.0
sI19
F0.0
sI20
F0.0
sI21
F6.166602767300278
sI22
F-0.09203884727313846
sI23
F-0.0521553467881118
sI24
F-6.284719287967472
sI25
F-0.9894176081862386
sI26
F-1.0016894544893238
sI27
F-0.047553404424454875
sI28
F-0.007669903939428206
sI29
F0.0
sI30
F0.0
sI31
F1.5922720578252956
sI32
F0.3236699462438703
sI33
F0.3988350048502667
sI34
F0.8206797215188181
sI35
F3.6155927170464564
sI36
F-2.9314372856494604
sI37
F0.0
sI38
F0.0
sI39
F0.0
sI40
F0.0
sI41
F-1.7073206169167185
sI42
F-3.6140587362585705
sI43
F0.0
sI44
F0.0
sI45
F0.0
sI46
F0.0
sI47
F0.0
sI48
F0.0
sI49
F0.0
sI50
F0.0
sI51
F0.08130098175793898
sI52
F-0.8605632220038447
sI53
F0.02914563496982718
sI54
F0.0
sI55
F0.0
sI56
F0.0
sI57
F0.0
sI58
F0.0
sI59
F0.0
sI60
F0.0
sI61
F-1.4296700943094176
sI62
F-2.448233337465483
sI63
F0.0
sI64
F0.0
sI65
F0.0
sI66
F0.0
sI67
F0.0
sI68
F0.0
sI69
F0.0
sI70
F0.0
sI71
F0.0
sI72
F0.0
sI73
F0.0
sI74
F0.0
sI75
F0.0
sI76
F0.0
sI77
F0.0
sI78
F0.0
sI79
F0.0
sI80
F0.0
sI81
F0.0
sI82
F0.0
sI83
F0.0
sI84
F0.0
sI85
F0.0
sI86
F0.0
sI87
F0.0
sI88
F0.0
sI89
F0.0
sI90
F0.0
sI91
F0.0
sI92
F0.0
sI93
F0.0
sI94
F0.0
sI95
F0.0
sI96
F0.0
sI97
F0.0
sI98
F0.0
sI99
F0.0
sI100
F0.0
sI101
F0.0
sI102
F0.0
sI103
F0.0
sI104
F0.0
sI105
F0.0
sI106
F0.0
sI107
F0.0
sI108
F0.0
sI109
F0.0
sI110
F0.0
sI111
F0.0
sI112
F0.0
sI113
F0.0
sI114
F0.0
sI115
F0.0
sI116
F0.0
sI117
F0.0
sI118
F0.0
sI119
F0.0
sI120
F0.0
sI121
F0.0
sI122
F0.0
sI123
F0.0
sI124
F0.0
sI125
F0.0
sI126
F0.0
sI127
F0.0
sI128
F0.0
sI129
F0.0
sI130
F0.0
sI131
F0.0
sI132
F0.0
sI133
F0.0
sI134
F0.0
sI135
F0.0
sI136
F0.0
sI137
F0.0
sI138
F0.0
sI139
F0.0
sI140
F0.0
sI141
F0.0
sI142
F0.0
sI143
F0.0
sI144
F0.0
sI145
F0.0
sI146
F0.0
sI147
F0.0
sI148
F0.0
sI149
F0.0
sI150
F0.0
sI151
F0.0
sI152
F0.0
sI153
F0.0
sI154
F0.0
sI155
F0.0
sI156
F0.0
sI157
F0.0
sI158
F0.0
sI159
F0.0
sI160
F0.0
sI161
F0.0
sI162
F0.0
sI163
F0.0
sI164
F0.0
sI165
F0.0
sI166
F0.0
sI167
F0.0
sI168
F0.0
sI169
F0.0
sI170
F0.0
sI171
F0.0
sI172
F0.0
sI173
F0.0
sI174
F0.0
sI175
F0.0
sI176
F0.0
sI177
F0.0
sI178
F0.0
sI179
F0.0
sI180
F0.0
sI181
F0.0
sI182
F0.0
sI183
F0.0
sI184
F0.0
sI185
F0.0
sI186
F0.0
sI187
F0.0
sI188
F0.0
sI189
F0.0
sI190
F0.0
sI191
F0.0
sI192
F0.0
sI193
F0.0
sI194
F0.0
sI195
F0.0
sI196
F0.0
sI197
F0.0
sI198
F0.0
sI199
F0.0
sI200
F0.0
sI201
F0.0
sI202
F0.0
sI203
F0.0
sI204
F0.0
sI205
F0.0
sI206
F0.0
sI207
F0.0
sI208
F0.0
sI209
F0.0
sI210
F0.0
sI211
F0.0
sI212
F0.0
sI213
F0.0
sI214
F0.0
sI215
F0.0
sI216
F0.0
sI217
F0.0
sI218
F0.0
sI219
F0.0
sI220
F0.0
sI221
F0.0
sI222
F0.0
sI223
F0.0
sI224
F0.0
sI225
F0.0
sI226
F0.0
sI227
F0.0
sI228
F0.0
sI229
F0.0
sI230
F0.0
sI231
F0.0
sI232
F0.0
sI233
F0.0
sI234
F0.0
sI235
F0.0
sI236
F0.0
sI237
F0.0
sI238
F0.0
sI239
F0.0
sI240
F0.0
sI241
F0.0
sI242
F0.0
sI243
F0.0
sI244
F0.0
sI245
F0.0
sI246
F0.0
sI247
F0.0
sI248
F0.0
sI249
F0.0
sI250
F0.0
sI251
F0.0
sI252
F0.0
sa(dp4
I0
F1.0
sI1
F0.0
sI2
F0.0
sI3
F0.0
sI4
F0.0
sI5
F0.0
sI6
F0.0
sI7
F0.0
sI8
F0.0
sI9
F0.0
sI10
F0.0
sI11
F-6.284719287967472
sI12
F-0.26231071472844464
sI13
F0.7700583555185919
sI14
F0.25770877236478773
sI15
F1.2348545342479411
sI16
F1.141281706186917
sI17
F0.0
sI18
F0.0
sI19
F0.0
sI20
F0.0
sI21
F6.166602767300278
sI22
F-0.09203884727313846
sI23
F-0.0521553467881118
sI24
F-6.284719287967472
sI25
F-0.9894176081862386
sI26
F-1.0016894544893238
sI27
F-0.047553404424454875
sI28
F-0.007669903939428206
sI29
F0.0
sI30
F0.0
sI31
F1.5661943844312396
sI32
F0.3236699462438703
sI33
F0.3988350048502667
sI34
F0.8206797215188181
sI35
F3.6447383520162835
sI36
F-2.9314372856494604
sI37
F0.0
sI38
F0.0
sI39
F0.0
sI40
F0.0
sI41
F-0.8728350683069298
sI42
F-3.6140587362585705
sI43
F0.0
sI44
F0.0
sI45
F0.0
sI46
F0.0
sI47
F0.0
sI48
F0.0
sI49
F0.0
sI50
F0.0
sI51
F0.07976700097005335
sI52
F-0.8605632220038447
sI53
F0.023009711818284616
sI54
F0.0
sI55
F0.0
sI56
F0.0
sI57
F0.0
sI58
F0.0
sI59
F0.0
sI60
F0.0
sI61
F-1.4296700943094176
sI62
F-2.448233337465483
sI63
F0.0
sI64
F0.0
sI65
F0.0
sI66
F0.0
sI67
F0.0
sI68
F0.0
sI69
F0.0
sI70
F0.0
sI71
F0.0
sI72
F0.0
sI73
F0.0
sI74
F0.0
sI75
F0.0
sI76
F0.0
sI77
F0.0
sI78
F0.0
sI79
F0.0
sI80
F0.0
sI81
F0.0
sI82
F0.0
sI83
F0.0
sI84
F0.0
sI85
F0.0
sI86
F0.0
sI87
F0.0
sI88
F0.0
sI89
F0.0
sI90
F0.0
sI91
F0.0
sI92
F0.0
sI93
F0.0
sI94
F0.0
sI95
F0.0
sI96
F0.0
sI97
F0.0
sI98
F0.0
sI99
F0.0
sI100
F0.0
sI101
F0.0
sI102
F0.0
sI103
F0.0
sI104
F0.0
sI105
F0.0
sI106
F0.0
sI107
F0.0
sI108
F0.0
sI109
F0.0
sI110
F0.0
sI111
F0.0
sI112
F0.0
sI113
F0.0
sI114
F0.0
sI115
F0.0
sI116
F0.0
sI117
F0.0
sI118
F0.0
sI119
F0.0
sI120
F0.0
sI121
F0.0
sI122
F0.0
sI123
F0.0
sI124
F0.0
sI125
F0.0
sI126
F0.0
sI127
F0.0
sI128
F0.0
sI129
F0.0
sI130
F0.0
sI131
F0.0
sI132
F0.0
sI133
F0.0
sI134
F0.0
sI135
F0.0
sI136
F0.0
sI137
F0.0
sI138
F0.0
sI139
F0.0
sI140
F0.0
sI141
F0.0
sI142
F0.0
sI143
F0.0
sI144
F0.0
sI145
F0.0
sI146
F0.0
sI147
F0.0
sI148
F0.0
sI149
F0.0
sI150
F0.0
sI151
F0.0
sI152
F0.0
sI153
F0.0
sI154
F0.0
sI155
F0.0
sI156
F0.0
sI157
F0.0
sI158
F0.0
sI159
F0.0
sI160
F0.0
sI161
F0.0
sI162
F0.0
sI163
F0.0
sI164
F0.0
sI165
F0.0
sI166
F0.0
sI167
F0.0
sI168
F0.0
sI169
F0.0
sI170
F0.0
sI171
F0.0
sI172
F0.0
sI173
F0.0
sI174
F0.0
sI175
F0.0
sI176
F0.0
sI177
F0.0
sI178
F0.0
sI179
F0.0
sI180
F0.0
sI181
F0.0
sI182
F0.0
sI183
F0.0
sI184
F0.0
sI185
F0.0
sI186
F0.0
sI187
F0.0
sI188
F0.0
sI189
F0.0
sI190
F0.0
sI191
F0.0
sI192
F0.0
sI193
F0.0
sI194
F0.0
sI195
F0.0
sI196
F0.0
sI197
F0.0
sI198
F0.0
sI199
F0.0
sI200
F0.0
sI201
F0.0
sI202
F0.0
sI203
F0.0
sI204
F0.0
sI205
F0.0
sI206
F0.0
sI207
F0.0
sI208
F0.0
sI209
F0.0
sI210
F0.0
sI211
F0.0
sI212
F0.0
sI213
F0.0
sI214
F0.0
sI215
F0.0
sI216
F0.0
sI217
F0.0
sI218
F0.0
sI219
F0.0
sI220
F0.0
sI221
F0.0
sI222
F0.0
sI223
F0.0
sI224
F0.0
sI225
F0.0
sI226
F0.0
sI227
F0.0
sI228
F0.0
sI229
F0.0
sI230
F0.0
sI231
F0.0
sI232
F0.0
sI233
F0.0
sI234
F0.0
sI235
F0.0
sI236
F0.0
sI237
F0.0
sI238
F0.0
sI239
F0.0
sI240
F0.0
sI241
F0.0
sI242
F0.0
sI243
F0.0
sI244
F0.0
sI245
F0.0
sI246
F0.0
sI247
F0.0
sI248
F0.0
sI249
F0.0
sI250
F0.0
sI251
F0.0
sI252
F0.0
sa(dp5
I0
F1.0
sI1
F0.0
sI2
F0.0
sI3
F0.0
sI4
F0.0
sI5
F0.0
sI6
F0.0
sI7
F0.0
sI8
F0.0
sI9
F0.0
sI10
F0.0
sI11
F-6.284719287967472
sI12
F-0.2638446955163303
sI13
F0.7700583555185919
sI14
F0.25770877236478773
sI15
F1.2348545342479411
sI16
F1.141281706186917
sI17
F0.0
sI18
F0.0
sI19
F0.0
sI20
F0.0
sI21
F6.166602767300278
sI22
F-0.09203884727313846
sI23
F-0.0521553467881118
sI24
F-6.284719287967472
sI25
F-0.9894176081862386
sI26
F-1.0032234352772094
sI27
F-0.04601942363656923
sI28
F-0.007669903939428206
sI29
F0.0
sI30
F0.0
sI31
F1.5278448647340985
sI32
F0.3236699462438703
sI33
F0.3988350048502667
sI34
F0.8206797215188181
sI35
F3.6432043712283977
sI36
F-2.9314372856494604
sI37
F0.0
sI38
F0.0
sI39
F0.0
sI40
F0.0
sI41
F-1.9542915237663068
sI42
F-3.6140587362585705
sI43
F0.0
sI44
F0.0
sI45
F0.0
sI46
F0.0
sI47
F0.0
sI48
F0.0
sI49
F0.0
sI50
F0.0
sI51
F0.07976700097005335
sI52
F-0.8605632220038447
sI53
F0.02454369260617026
sI54
F0.0
sI55
F0.0
sI56
F0.0
sI57
F0.0
sI58
F0.0
sI59
F0.0
sI60
F0.0
sI61
F-1.428136113521532
sI62
F-2.446699356677598
sI63
F0.0
sI64
F0.0
sI65
F0.0
sI66
F0.0
sI67
F0.0
sI68
F0.0
sI69
F0.0
sI70
F0.0
sI71
F0.0
sI72
F0.0
sI73
F0.0
sI74
F0.0
sI75
F0.0
sI76
F0.0
sI77
F0.0
sI78
F0.0
sI79
F0.0
sI80
F0.0
sI81
F0.0
sI82
F0.0
sI83
F0.0
sI84
F0.0
sI85
F0.0
sI86
F0.0
sI87
F0.0
sI88
F0.0
sI89
F0.0
sI90
F0.0
sI91
F0.0
sI92
F0.0
sI93
F0.0
sI94
F0.0
sI95
F0.0
sI96
F0.0
sI97
F0.0
sI98
F0.0
sI99
F0.0
sI100
F0.0
sI101
F0.0
sI102
F0.0
sI103
F0.0
sI104
F0.0
sI105
F0.0
sI106
F0.0
sI107
F0.0
sI108
F0.0
sI109
F0.0
sI110
F0.0
sI111
F0.0
sI112
F0.0
sI113
F0.0
sI114
F0.0
sI115
F0.0
sI116
F0.0
sI117
F0.0
sI118
F0.0
sI119
F0.0
sI120
F0.0
sI121
F0.0
sI122
F0.0
sI123
F0.0
sI124
F0.0
sI125
F0.0
sI126
F0.0
sI127
F0.0
sI128
F0.0
sI129
F0.0
sI130
F0.0
sI131
F0.0
sI132
F0.0
sI133
F0.0
sI134
F0.0
sI135
F0.0
sI136
F0.0
sI137
F0.0
sI138
F0.0
sI139
F0.0
sI140
F0.0
sI141
F0.0
sI142
F0.0
sI143
F0.0
sI144
F0.0
sI145
F0.0
sI146
F0.0
sI147
F0.0
sI148
F0.0
sI149
F0.0
sI150
F0.0
sI151
F0.0
sI152
F0.0
sI153
F0.0
sI154
F0.0
sI155
F0.0
sI156
F0.0
sI157
F0.0
sI158
F0.0
sI159
F0.0
sI160
F0.0
sI161
F0.0
sI162
F0.0
sI163
F0.0
sI164
F0.0
sI165
F0.0
sI166
F0.0
sI167
F0.0
sI168
F0.0
sI169
F0.0
sI170
F0.0
sI171
F0.0
sI172
F0.0
sI173
F0.0
sI174
F0.0
sI175
F0.0
sI176
F0.0
sI177
F0.0
sI178
F0.0
sI179
F0.0
sI180
F0.0
sI181
F0.0
sI182
F0.0
sI183
F0.0
sI184
F0.0
sI185
F0.0
sI186
F0.0
sI187
F0.0
sI188
F0.0
sI189
F0.0
sI190
F0.0
sI191
F0.0
sI192
F0.0
sI193
F0.0
sI194
F0.0
sI195
F0.0
sI196
F0.0
sI197
F0.0
sI198
F0.0
sI199
F0.0
sI200
F0.0
sI201
F0.0
sI202
F0.0
sI203
F0.0
sI204
F0.0
sI205
F0.0
sI206
F0.0
sI207
F0.0
sI208
F0.0
sI209
F0.0
sI210
F0.0
sI211
F0.0
sI212
F0.0
sI213
F0.0
sI214
F0.0
sI215
F0.0
sI216
F0.0
sI217
F0.0
sI218
F0.0
sI219
F0.0
sI220
F0.0
sI221
F0.0
sI222
F0.0
sI223
F0.0
sI224
F0.0
sI225
F0.0
sI226
F0.0
sI227
F0.0
sI228
F0.0
sI229
F0.0
sI230
F0.0
sI231
F0.0
sI232
F0.0
sI233
F0.0
sI234
F0.0
sI235
F0.0
sI236
F0.0
sI237
F0.0
sI238
F0.0
sI239
F0.0
sI240
F0.0
sI241
F0.0
sI242
F0.0
sI243
F0.0
sI244
F0.0
sI245
F0.0
sI246
F0.0
sI247
F0.0
sI248
F0.0
sI249
F0.0
sI250
F0.0
sI251
F0.0
sI252
F0.0
sa(dp6
I0
F1.0
sI1
F0.0
sI2
F0.0
sI3
F0.0
sI4
F0.0
sI5
F0.0
sI6
F0.0
sI7
F0.0
sI8
F0.0
sI9
F0.0
sI10
F0.0
sI11
F-6.284719287967472
sI12
F-0.26231071472844464
sI13
F0.7700583555185919
sI14
F0.25770877236478773
sI15
F1.2348545342479411
sI16
F1.141281706186917
sI17
F0.0
sI18
F0.0
sI19
F0.0
sI20
F0.0
sI21
F6.166602767300278
sI22
F-0.09203884727313846
sI23
F-0.0521553467881118
sI24
F-6.284719287967472
sI25
F-0.9894176081862386
sI26
F-1.0016894544893238
sI27
F-0.04601942363656923
sI28
F-0.007669903939428206
sI29
F0.0
sI30
F0.0
sI31
F1.5186409800067848
sI32
F0.3236699462438703
sI33
F0.3988350048502667
sI34
F0.8206797215188181
sI35
F3.6447383520162835
sI36
F-2.9314372856494604
sI37
F0.0
sI38
F0.0
sI39
F0.0
sI40
F0.0
sI41
F-0.8943107993373288
sI42
F-3.6140587362585705
sI43
F0.0
sI44
F0.0
sI45
F0.0
sI46
F0.0
sI47
F0.0
sI48
F0.0
sI49
F0.0
sI50
F0.0
sI51
F0.0782330201821677
sI52
F-0.8605632220038447
sI53
F0.021475731030398976
sI54
F0.0
sI55
F0.0
sI56
F0.0
sI57
F0.0
sI58
F0.0
sI59
F0.0
sI60
F0.0
sI61
F-1.4296700943094176
sI62
F-2.448233337465483
sI63
F0.0
sI64
F0.0
sI65
F0.0
sI66
F0.0
sI67
F0.0
sI68
F0.0
sI69
F0.0
sI70
F0.0
sI71
F0.0
sI72
F0.0
sI73
F0.0
sI74
F0.0
sI75
F0.0
sI76
F0.0
sI77
F0.0
sI78
F0.0
sI79
F0.0
sI80
F0.0
sI81
F0.0
sI82
F0.0
sI83
F0.0
sI84
F0.0
sI85
F0.0
sI86
F0.0
sI87
F0.0
sI88
F0.0
sI89
F0.0
sI90
F0.0
sI91
F0.0
sI92
F0.0
sI93
F0.0
sI94
F0.0
sI95
F0.0
sI96
F0.0
sI97
F0.0
sI98
F0.0
sI99
F0.0
sI100
F0.0
sI101
F0.0
sI102
F0.0
sI103
F0.0
sI104
F0.0
sI105
F0.0
sI106
F0.0
sI107
F0.0
sI108
F0.0
sI109
F0.0
sI110
F0.0
sI111
F0.0
sI112
F0.0
sI113
F0.0
sI114
F0.0
sI115
F0.0
sI116
F0.0
sI117
F0.0
sI118
F0.0
sI119
F0.0
sI120
F0.0
sI121
F0.0
sI122
F0.0
sI123
F0.0
sI124
F0.0
sI125
F0.0
sI126
F0.0
sI127
F0.0
sI128
F0.0
sI129
F0.0
sI130
F0.0
sI131
F0.0
sI132
F0.0
sI133
F0.0
sI134
F0.0
sI135
F0.0
sI136
F0.0
sI137
F0.0
sI138
F0.0
sI139
F0.0
sI140
F0.0
sI141
F0.0
sI142
F0.0
sI143
F0.0
sI144
F0.0
sI145
F0.0
sI146
F0.0
sI147
F0.0
sI148
F0.0
sI149
F0.0
sI150
F0.0
sI151
F0.0
sI152
F0.0
sI153
F0.0
sI154
F0.0
sI155
F0.0
sI156
F0.0
sI157
F0.0
sI158
F0.0
sI159
F0.0
sI160
F0.0
sI161
F0.0
sI162
F0.0
sI163
F0.0
sI164
F0.0
sI165
F0.0
sI166
F0.0
sI167
F0.0
sI168
F0.0
sI169
F0.0
sI170
F0.0
sI171
F0.0
sI172
F0.0
sI173
F0.0
sI174
F0.0
sI175
F0.0
sI176
F0.0
sI177
F0.0
sI178
F0.0
sI179
F0.0
sI180
F0.0
sI181
F0.0
sI182
F0.0
sI183
F0.0
sI184
F0.0
sI185
F0.0
sI186
F0.0
sI187
F0.0
sI188
F0.0
sI189
F0.0
sI190
F0.0
sI191
F0.0
sI192
F0.0
sI193
F0.0
sI194
F0.0
sI195
F0.0
sI196
F0.0
sI197
F0.0
sI198
F0.0
sI199
F0.0
sI200
F0.0
sI201
F0.0
sI202
F0.0
sI203
F0.0
sI204
F0.0
sI205
F0.0
sI206
F0.0
sI207
F0.0
sI208
F0.0
sI209
F0.0
sI210
F0.0
sI211
F0.0
sI212
F0.0
sI213
F0.0
sI214
F0.0
sI215
F0.0
sI216
F0.0
sI217
F0.0
sI218
F0.0
sI219
F0.0
sI220
F0.0
sI221
F0.0
sI222
F0.0
sI223
F0.0
sI224
F0.0
sI225
F0.0
sI226
F0.0
sI227
F0.0
sI228
F0.0
sI229
F0.0
sI230
F0.0
sI231
F0.0
sI232
F0.0
sI233
F0.0
sI234
F0.0
sI235
F0.0
sI236
F0.0
sI237
F0.0
sI238
F0.0
sI239
F0.0
sI240
F0.0
sI241
F0.0
sI242
F0.0
sI243
F0.0
sI244
F0.0
sI245
F0.0
sI246
F0.0
sI247
F0.0
sI248
F0.0
sI249
F0.0
sI250
F0.0
sI251
F0.0
sI252
F0.0
sa(dp7
I0
F1.0
sI1
F0.0
sI2
F0.0
sI3
F0.0
sI4
F0.0
sI5
F0.0
sI6
F0.0
sI7
F0.0
sI8
F0.0
sI9
F0.0
sI10
F0.0
sI11
F-6.284719287967472
sI12
F-0.26231071472844464
sI13
F0.7700583555185919
sI14
F0.25770877236478773
sI15
F1.2348545342479411
sI16
F1.141281706186917
sI17
F0.0
sI18
F0.0
sI19
F0.0
sI20
F0.0
sI21
F6.166602767300278
sI22
F-0.08897088569736719
sI23
F-0.05368932757599744
sI24
F-6.290855211119014
sI25
F-0.9894176081862386
sI26
F-1.0032234352772094
sI27
F-0.04601942363656923
sI28
F-0.010737865515199488
sI29
F0.0
sI30
F0.0
sI31
F0.49394181369917645
sI32
F0.3328738309711841
sI33
F0.45252433242626416
sI34
F0.786932144185334
sI35
F3.492874254015605
sI36
F-2.9314372856494604
sI37
F0.0
sI38
F0.0
sI39
F0.0
sI40
F0.0
sI41
F-0.2239611950313036
sI42
F-3.6140587362585705
sI43
F0.0
sI44
F0.0
sI45
F0.0
sI46
F0.0
sI47
F0.0
sI48
F0.0
sI49
F0.0
sI50
F0.0
sI51
F0.06442719309119693
sI52
F-0.8559612796401878
sI53
F0.007669903939428206
sI54
F0.0
sI55
F0.0
sI56
F0.0
sI57
F0.0
sI58
F0.0
sI59
F0.0
sI60
F0.0
sI61
F-1.428136113521532
sI62
F-2.448233337465483
sI63
F0.0
sI64
F0.0
sI65
F0.0
sI66
F0.0
sI67
F0.0
sI68
F0.0
sI69
F0.0
sI70
F0.0
sI71
F0.0
sI72
F0.0
sI73
F0.0
sI74
F0.0
sI75
F0.0
sI76
F0.0
sI77
F0.0
sI78
F0.0
sI79
F0.0
sI80
F0.0
sI81
F0.0
sI82
F0.0
sI83
F0.0
sI84
F0.0
sI85
F0.0
sI86
F0.0
sI87
F0.0
sI88
F0.0
sI89
F0.0
sI90
F0.0
sI91
F0.0
sI92
F0.0
sI93
F0.0
sI94
F0.0
sI95
F0.0
sI96
F0.0
sI97
F0.0
sI98
F0.0
sI99
F0.0
sI100
F0.0
sI101
F0.0
sI102
F0.0
sI103
F0.0
sI104
F0.0
sI105
F0.0
sI106
F0.0
sI107
F0.0
sI108
F0.0
sI109
F0.0
sI110
F0.0
sI111
F0.0
sI112
F0.0
sI113
F0.0
sI114
F0.0
sI115
F0.0
sI116
F0.0
sI117
F0.0
sI118
F0.0
sI119
F0.0
sI120
F0.0
sI121
F0.0
sI122
F0.0
sI123
F0.0
sI124
F0.0
sI125
F0.0
sI126
F0.0
sI127
F0.0
sI128
F0.0
sI129
F0.0
sI130
F0.0
sI131
F0.0
sI132
F0.0
sI133
F0.0
sI134
F0.0
sI135
F0.0
sI136
F0.0
sI137
F0.0
sI138
F0.0
sI139
F0.0
sI140
F0.0
sI141
F0.0
sI142
F0.0
sI143
F0.0
sI144
F0.0
sI145
F0.0
sI146
F0.0
sI147
F0.0
sI148
F0.0
sI149
F0.0
sI150
F0.0
sI151
F0.0
sI152
F0.0
sI153
F0.0
sI154
F0.0
sI155
F0.0
sI156
F0.0
sI157
F0.0
sI158
F0.0
sI159
F0.0
sI160
F0.0
sI161
F0.0
sI162
F0.0
sI163
F0.0
sI164
F0.0
sI165
F0.0
sI166
F0.0
sI167
F0.0
sI168
F0.0
sI169
F0.0
sI170
F0.0
sI171
F0.0
sI172
F0.0
sI173
F0.0
sI174
F0.0
sI175
F0.0
sI176
F0.0
sI177
F0.0
sI178
F0.0
sI179
F0.0
sI180
F0.0
sI181
F0.0
sI182
F0.0
sI183
F0.0
sI184
F0.0
sI185
F0.0
sI186
F0.0
sI187
F0.0
sI188
F0.0
sI189
F0.0
sI190
F0.0
sI191
F0.0
sI192
F0.0
sI193
F0.0
sI194
F0.0
sI195
F0.0
sI196
F0.0
sI197
F0.0
sI198
F0.0
sI199
F0.0
sI200
F0.0
sI201
F0.0
sI202
F0.0
sI203
F0.0
sI204
F0.0
sI205
F0.0
sI206
F0.0
sI207
F0.0
sI208
F0.0
sI209
F0.0
sI210
F0.0
sI211
F0.0
sI212
F0.0
sI213
F0.0
sI214
F0.0
sI215
F0.0
sI216
F0.0
sI217
F0.0
sI218
F0.0
sI219
F0.0
sI220
F0.0
sI221
F0.0
sI222
F0.0
sI223
F0.0
sI224
F0.0
sI225
F0.0
sI226
F0.0
sI227
F0.0
sI228
F0.0
sI229
F0.0
sI230
F0.0
sI231
F0.0
sI232
F0.0
sI233
F0.0
sI234
F0.0
sI235
F0.0
sI236
F0.0
sI237
F0.0
sI238
F0.0
sI239
F0.0
sI240
F0.0
sI241
F0.0
sI242
F0.0
sI243
F0.0
sI244
F0.0
sI245
F0.0
sI246
F0.0
sI247
F0.0
sI248
F0.0
sI249
F0.0
sI250
F0.0
sI251
F0.0
sI252
F0.0
sa.