(lp0
(dp1
I0
F1.0
sI11
F-6.284719287967472
sI12
F-0.26231071472844464
sI13
F0.7485826244881929
sI14
F0.25464081078901646
sI15
F1.2455923997631406
sI16
F1.1428156869748027
sI21
F6.181942575179134
sI22
F-0.07363107781851078
sI23
F-0.047553404424454875
sI24
F-6.2923891919069
sI25
F-0.9924855697620099
sI26
F-1.0016894544893238
sI27
F-0.044485442848683596
sI28
F-0.007669903939428206
sI31
F0.5691068723055729
sI32
F0.13345632854605077
sI33
F0.34054373491061235
sI34
F0.6181942575179133
sI35
F3.4990101771671474
sI36
F7.961360289126477
sI41
F-0.5890486225480862
sI42
F-2.9375732088010027
sI51
F0.07516505860639641
sI52
F-0.8436894333371027
sI53
F0.006135923151542565
sI61
F-1.4818254410975293
sI62
F-2.4559032414049113
sa(dp2
I0
F1.0
sI11
F-6.284719287967472
sI12
F-0.26231071472844464
sI13
F0.7470486437003072
sI14
F0.25464081078901646
sI15
F1.2455923997631406
sI16
F1.1428156869748027
sI21
F6.181942575179134
sI22
F-0.07363107781851078
sI23
F-0.047553404424454875
sI24
F-6.2923891919069
sI25
F-0.9940195505498954
sI26
F-1.000155473701438
sI27
F-0.04295146206079795
sI28
F-0.007669903939428206
sI31
F1.0753205323078345
sI32
F0.13192234775816514
sI33
F0.3512816004258118
sI34
F0.6181942575179133
sI35
F3.500544157955033
sI36
F7.962894269914363
sI41
F-0.6458059116998549
sI42
F-2.9375732088010027
sI51
F0.0782330201821677
sI52
F-0.842155452549217
sI53
F0.01687378866674205
sI61
F-1.1044661672776617
sI62
F-2.454369260617026
sa(dp3
I0
F1.0
sI11
F-6.284719287967472
sI12
F-0.26231071472844464
sI13
F0.7470486437003072
sI14
F0.25310683000113077
sI15
F1.2455923997631406
sI16
F1.1428156869748027
sI21
F6.181942575179134
sI22
F-0.07363107781851078
sI23
F-0.044485442848683596
sI24
F-6.290855211119014
sI25
F-0.9924855697620099
sI26
F-1.000155473701438
sI27
F-0.044485442848683596
sI28
F-0.007669903939428206
sI31
F1.4802914603096438
sI32
F0.13192234775816514
sI33
F0.3512816004258118
sI34
F0.6181942575179133
sI35
F3.500544157955033
sI36
F7.962894269914363
sI41
F-0.6458059116998549
sI42
F-2.9375732088010027
sI51
F0.0966407896367954
sI52
F-0.8436894333371027
sI53
F0.035281558121369745
sI61
F-0.6856894121848816
sI62
F-2.454369260617026
sa(dp4
I0
F1.0
sI11
F-6.284719287967472
sI12
F-0.26231071472844464
sI13
F0.7470486437003072
sI14
F0.25464081078901646
sI15
F1.2455923997631406
sI16
F1.1443496677626883
sI21
F6.18347655596702
sI22
F-0.07363107781851078
sI23
F-0.04601942363656923
sI24
F-6.2923891919069
sI25
F-0.9940195505498954
sI26
F-1.000155473701438
sI27
F-0.044485442848683596
sI28
F-0.007669903939428206
sI31
F1.5232429223704418
sI32
F0.13192234775816514
sI33
F0.3512816004258118
sI34
F0.6181942575179133
sI35
F3.8794374125627864
sI36
F7.962894269914363
sI41
F-1.1198059751565181
sI42
F-2.9375732088010027
sI51
F0.10124273200045232
sI52
F-0.8406214717613314
sI53
F0.03834951969714103
sI61
F-0.9648739155800683
sI62
F-2.4559032414049113
sa(dp5
I0
F1.0
sI11
F-6.284719287967472
sI12
F-0.26231071472844464
sI13
F0.7470486437003072
sI14
F0.25464081078901646
sI15
F1.2455923997631406
sI16
F1.1428156869748027
sI21
F6.18347655596702
sI22
F-0.07363107781851078
sI23
F-0.04601942363656923
sI24
F-6.290855211119014
sI25
F-0.9924855697620099
sI26
F-0.9986214929135524
sI27
F-0.044485442848683596
sI28
F-0.007669903939428206
sI31
F1.4986992297642714
sI32
F0.13192234775816514
sI33
F0.34974761963792617
sI34
F0.6181942575179133
sI35
F3.7122335066832517
sI36
F7.962894269914363
sI41
F-0.5829126993965437
sI42
F-2.9375732088010027
sI51
F0.11044661672776616
sI52
F-0.842155452549217
sI53
F0.04908738521234052
sI61
F-1.3575729972787924
sI62
F-2.454369260617026
sa(dp6
I0
F1.0
sI11
F-6.284719287967472
sI12
F-0.26231071472844464
sI13
F0.7470486437003072
sI14
F0.25464081078901646
sI15
F1.2455923997631406
sI16
F1.1428156869748027
sI21
F6.1850105367549055
sI22
F-0.07363107781851078
sI23
F-0.04601942363656923
sI24
F-6.2923891919069
sI25
F-0.9924855697620099
sI26
F-1.000155473701438
sI27
F-0.04601942363656923
sI28
F-0.006135923151542565
sI31
F0.6519418348513975
sI32
F0.13192234775816514
sI33
F0.10891263593988053
sI34
F0.619728238305799
sI35
F2.6093013201934756
sI36
F7.962894269914363
sI41
F-1.4035924209153616
sI42
F-2.9375732088010027
sI51
F0.10891263593988053
sI52
F-0.8406214717613314
sI53
F0.04141748127291231
sI61
F-1.5079031144915853
sI62
F-2.6277090896481035
sa.