(lp0
(dp1
I0
F1.0
sI11
F-6.284719287967472
sI12
F-0.26231071472844464
sI13
F0.7470486437003072
sI14
F-0.09442503960984944
sI15
F1.2471263805510262
sI16
F1.1428156869748027
sI21
F6.1850105367549055
sI22
F-0.07209709703062514
sI23
F-0.04601942363656923
sI24
F-6.2923891919069
sI25
F-0.9909515889741242
sI26
F-1.0016894544893238
sI27
F-0.04601942363656923
sI28
F-0.006135923151542565
sI31
F0.6550097964271688
sI32
F0.13192234775816514
sI33
F0.11351457830353745
sI34
F0.6181942575179133
sI35
F2.6123692817692468
sI36
F7.962894269914363
sI41
F-1.3989904785517047
sI42
F-2.9375732088010027
sI51
F0.10277671278833796
sI52
F-0.8390874909734457
sI53
F0.030679615757712823
sI61
F-1.1573032833048338
sI62
F-2.624641128072332
sa(dp2
I0
F1.0
sI11
F-6.284719287967472
sI12
F-0.26231071472844464
sI13
F0.7470486437003074
sI14
F0.42917373598844943
sI15
F1.2471263805510262
sI16
F1.1428156869748027
sI21
F6.1850105367549055
sI22
F-0.07209709703062514
sI23
F-0.04601942363656923
sI24
F-6.2923891919069
sI25
F-0.9909515889741242
sI26
F-1.0016894544893238
sI27
F-0.04601942363656923
sI28
F-0.006135923151542565
sI31
F0.6550097964271688
sI32
F0.13192234775816514
sI33
F0.11351457830353745
sI34
F0.6181942575179133
sI35
F2.6123692817692468
sI36
F7.962894269914363
sI41
F-1.3989904785517047
sI42
F-2.9375732088010027
sI51
F0.10277671278833796
sI52
F-0.8390874909734457
sI53
F0.030679615757712823
sI61
F-1.8554349841025657
sI62
F-2.624641128072332
sa(dp3
I0
F1.0
sI11
F-6.284719287967472
sI12
F-0.26231071472844464
sI13
F0.7470486437003074
sI14
F-0.09442503960984944
sI15
F1.2471263805510262
sI16
F1.1428156869748027
sI21
F6.1850105367549055
sI22
F-0.07209709703062514
sI23
F-0.04601942363656923
sI24
F-6.2923891919069
sI25
F-0.9909515889741242
sI26
F-1.0016894544893238
sI27
F-0.04601942363656923
sI28
F-0.006135923151542565
sI31
F0.6550097964271688
sI32
F0.13192234775816514
sI33
F0.11351457830353745
sI34
F0.6181942575179133
sI35
F2.6123692817692468
sI36
F7.962894269914363
sI41
F-1.3989904785517047
sI42
F-2.9375732088010027
sI51
F0.10277671278833796
sI52
F-0.8390874909734457
sI53
F0.030679615757712823
sI61
F-1.1573032833048338
sI62
F-2.624641128072332
sa(dp4
I0
F1.0
sI11
F-6.284719287967472
sI12
F-0.26231071472844464
sI13
F0.7470486437003074
sI14
F0.42917373598844943
sI15
F1.2471263805510262
sI16
F1.1428156869748027
sI21
F6.1850105367549055
sI22
F-0.07209709703062514
sI23
F-0.04601942363656923
sI24
F-6.2923891919069
sI25
F-0.9909515889741242
sI26
F-1.0016894544893238
sI27
F-0.04601942363656923
sI28
F-0.006135923151542565
sI31
F0.6550097964271688
sI32
F0.13192234775816514
sI33
F0.11351457830353745
sI34
F0.6181942575179133
sI35
F2.6123692817692468
sI36
F7.962894269914363
sI41
F-1.3989904785517047
sI42
F-2.9375732088010027
sI51
F0.10277671278833796
sI52
F-0.8390874909734457
sI53
F0.030679615757712823
sI61
F-1.8554349841025657
sI62
F-2.624641128072332
sa(dp5
I0
F1.0
sI11
F-6.284719287967472
sI12
F-0.26231071472844464
sI13
F0.7470486437003074
sI14
F0.25464081078901646
sI15
F1.2471263805510262
sI16
F1.1428156869748027
sI21
F6.1850105367549055
sI22
F-0.07209709703062514
sI23
F-0.04601942363656923
sI24
F-6.2923891919069
sI25
F-0.9909515889741242
sI26
F-1.0016894544893238
sI27
F-0.04601942363656923
sI28
F-0.006135923151542565
sI31
F0.6550097964271688
sI32
F0.13192234775816514
sI33
F0.11351457830353745
sI34
F0.6181942575179133
sI35
F2.6123692817692468
sI36
F7.962894269914363
sI41
F-1.3989904785517047
sI42
F-2.9375732088010027
sI51
F0.10277671278833796
sI52
F-0.8390874909734457
sI53
F0.030679615757712823
sI61
F-1.5063691337036997
sI62
F-2.624641128072332
sa.